; Function Attrs: mustprogress uwtable
define internal noundef ptr @_ZL17utrans_enum_unextP12UEnumerationPiP10UErrorCode(ptr noundef captures(none) %0, ptr noundef writeonly %1, ptr noundef readonly %2) #4 {
  %4 = icmp eq ptr %2, null
  br i1 %4, label %_ZNK6icu_7713UnicodeString9getBufferEv.exit, label %5

5:                                                ; preds = %3
  %6 = load i32, ptr %2, align 4, !tbaa !23
  %7 = icmp slt i32 %6, 1
  br i1 %7, label %8, label %_ZNK6icu_7713UnicodeString9getBufferEv.exit

8:                                                ; preds = %5
  %9 = getelementptr inbounds nuw i8, ptr %0, i64 56
  %10 = load i32, ptr %9, align 8, !tbaa !35
  %11 = getelementptr inbounds nuw i8, ptr %0, i64 60
  %12 = load i32, ptr %11, align 4, !tbaa !38
  %13 = icmp slt i32 %10, %12
  br i1 %13, label %14, label %37

14:                                               ; preds = %8
  %15 = tail call noundef nonnull align 8 dereferenceable(64) ptr @_ZN6icu_7714Transliterator14getAvailableIDEi(i32 noundef %10)
  %16 = add nsw i32 %10, 1
  store i32 %16, ptr %9, align 8, !tbaa !35
  %.not20 = icmp eq ptr %1, null
  br i1 %.not20, label %26, label %17

17:                                               ; preds = %14
  %18 = getelementptr inbounds nuw i8, ptr %15, i64 8
  %19 = load i16, ptr %18, align 8, !tbaa !20
  %20 = icmp slt i16 %19, 0
  %21 = ashr i16 %19, 5
  %22 = sext i16 %21 to i32
  %23 = getelementptr inbounds nuw i8, ptr %15, i64 12
  %24 = load i32, ptr %23, align 4
  %25 = select i1 %20, i32 %24, i32 %22
  store i32 %25, ptr %1, align 4, !tbaa !29
  br label %26

26:                                               ; preds = %17, %14
  %27 = getelementptr inbounds nuw i8, ptr %15, i64 8
  %28 = load i16, ptr %27, align 8, !tbaa !20
  %29 = and i16 %28, 17
  %.not.i = icmp eq i16 %29, 0
  br i1 %.not.i, label %30, label %_ZNK6icu_7713UnicodeString9getBufferEv.exit

30:                                               ; preds = %26
  %31 = and i16 %28, 2
  %.not2.i = icmp eq i16 %31, 0
  br i1 %.not2.i, label %34, label %32

32:                                               ; preds = %30
  %33 = getelementptr inbounds nuw i8, ptr %15, i64 10
  br label %_ZNK6icu_7713UnicodeString9getBufferEv.exit

34:                                               ; preds = %30
  %35 = getelementptr inbounds nuw i8, ptr %15, i64 24
  %36 = load ptr, ptr %35, align 8, !tbaa !20
  br label %_ZNK6icu_7713UnicodeString9getBufferEv.exit

37:                                               ; preds = %8
  %.not19 = icmp eq ptr %1, null
  br i1 %.not19, label %_ZNK6icu_7713UnicodeString9getBufferEv.exit, label %38

38:                                               ; preds = %37
  store i32 0, ptr %1, align 4, !tbaa !29
  br label %_ZNK6icu_7713UnicodeString9getBufferEv.exit

_ZNK6icu_7713UnicodeString9getBufferEv.exit:      ; preds = %34, %32, %26, %38, %37, %3, %5
  %.0 = phi ptr [ null, %5 ], [ null, %3 ], [ null, %38 ], [ null, %37 ], [ %33, %32 ], [ %36, %34 ], [ null, %26 ]
  ret ptr %.0
}